; Function Attrs: mustprogress uwtable
define noundef ptr @_ZNK3gmx14FileNameOption13createStorageERKNS_22OptionManagerContainerE(ptr noundef nonnull align 8 dereferenceable(113) %0, ptr nocapture noundef nonnull readonly align 8 dereferenceable(24) %1) unnamed_addr #0 align 2 personality ptr @__gxx_personality_v0 {
  %3 = tail call noalias noundef nonnull dereferenceable(248) ptr @_Znwm(i64 noundef 248) #23
  %4 = load ptr, ptr %1, align 8
  %5 = getelementptr inbounds i8, ptr %1, i64 8
  %6 = load ptr, ptr %5, align 8
  %.not1416.i = icmp eq ptr %4, %6
  br i1 %.not1416.i, label %_ZNK3gmx22OptionManagerContainer3getINS_21FileNameOptionManagerEEEPT_v.exit, label %.lr.ph.i

.lr.ph.i:                                         ; preds = %2, %.thread.i
  %.018.i = phi ptr [ %.1.i, %.thread.i ], [ null, %2 ]
  %.sroa.010.017.i = phi ptr [ %14, %.thread.i ], [ %4, %2 ]
  %7 = load ptr, ptr %.sroa.010.017.i, align 8
  %8 = icmp eq ptr %7, null
  br i1 %8, label %.thread.i, label %9

9:                                                ; preds = %.lr.ph.i
  %10 = tail call ptr @__dynamic_cast(ptr nonnull %7, ptr nonnull @_ZTIN3gmx14IOptionManagerE, ptr nonnull @_ZTIN3gmx21FileNameOptionManagerE, i64 0) #22
  %.not.i = icmp eq ptr %10, null
  br i1 %.not.i, label %.thread.i, label %11

11:                                               ; preds = %9
  %12 = icmp eq ptr %.018.i, null
  br i1 %12, label %.thread.i, label %13

13:                                               ; preds = %11
  invoke void @_ZN3gmx8internal13assertHandlerEPKcS2_S2_S2_i(ptr noundef nonnull @.str.33, ptr noundef nonnull @.str.34, ptr noundef nonnull @__PRETTY_FUNCTION__._ZZNK3gmx22OptionManagerContainer3getINS_21FileNameOptionManagerEEEPT_vENKUlvE_clEv, ptr noundef nonnull @.str.35, i32 noundef 101) #21
          to label %.noexc unwind label %16

.noexc:                                           ; preds = %13
  unreachable

.thread.i:                                        ; preds = %11, %9, %.lr.ph.i
  %.1.i = phi ptr [ %.018.i, %9 ], [ %10, %11 ], [ %.018.i, %.lr.ph.i ]
  %14 = getelementptr inbounds i8, ptr %.sroa.010.017.i, i64 8
  %.not14.i = icmp eq ptr %14, %6
  br i1 %.not14.i, label %_ZNK3gmx22OptionManagerContainer3getINS_21FileNameOptionManagerEEEPT_v.exit, label %.lr.ph.i

_ZNK3gmx22OptionManagerContainer3getINS_21FileNameOptionManagerEEEPT_v.exit: ; preds = %.thread.i, %2
  %.0.lcssa.i = phi ptr [ null, %2 ], [ %.1.i, %.thread.i ]
  invoke void @_ZN3gmx21FileNameOptionStorageC1ERKNS_14FileNameOptionEPNS_21FileNameOptionManagerE(ptr noundef nonnull align 8 dereferenceable(244) %3, ptr noundef nonnull align 8 dereferenceable(113) %0, ptr noundef %.0.lcssa.i)
          to label %15 unwind label %16

15:                                               ; preds = %_ZNK3gmx22OptionManagerContainer3getINS_21FileNameOptionManagerEEEPT_v.exit
  ret ptr %3

16:                                               ; preds = %13, %_ZNK3gmx22OptionManagerContainer3getINS_21FileNameOptionManagerEEEPT_v.exit
  %17 = landingpad { ptr, i32 }
          cleanup
  tail call void @_ZdlPv(ptr noundef nonnull %3) #24
  resume { ptr, i32 } %17
}